; Function Attrs: mustprogress nofree norecurse nosync nounwind memory(readwrite, inaccessiblemem: none) uwtable
define void @_ZNK6casadi17Feasiblesqpmethod24anderson_acc_init_memoryEPvPdS2_(ptr nocapture noundef nonnull readonly align 8 dereferenceable(2392) %0, ptr nocapture noundef readonly %1, ptr noundef readonly %2, ptr noundef readonly %3) local_unnamed_addr #12 align 2 {
  %5 = getelementptr inbounds i8, ptr %1, i64 520
  %6 = load ptr, ptr %5, align 8
  %7 = getelementptr inbounds i8, ptr %0, i64 2016
  %8 = load i64, ptr %7, align 8
  %9 = getelementptr inbounds i8, ptr %0, i64 1640
  %10 = load i64, ptr %9, align 8
  %11 = mul nsw i64 %10, %8
  %.not.i = icmp ne ptr %6, null
  %12 = icmp sgt i64 %11, 0
  %or.cond.i = and i1 %.not.i, %12
  br i1 %or.cond.i, label %.lr.ph.preheader.i, label %_ZN6casadi12casadi_clearIdEEvPT_x.exit

.lr.ph.preheader.i:                               ; preds = %4
  %13 = shl nuw i64 %11, 3
  tail call void @llvm.memset.p0.i64(ptr nonnull align 8 %6, i8 0, i64 %13, i1 false)
  %.pre = load i64, ptr %7, align 8
  %.pre25 = load i64, ptr %9, align 8
  %.pre26 = mul nsw i64 %.pre25, %.pre
  br label %_ZN6casadi12casadi_clearIdEEvPT_x.exit

_ZN6casadi12casadi_clearIdEEvPT_x.exit:           ; preds = %4, %.lr.ph.preheader.i
  %.pre-phi = phi i64 [ %11, %4 ], [ %.pre26, %.lr.ph.preheader.i ]
  %14 = phi i64 [ %10, %4 ], [ %.pre25, %.lr.ph.preheader.i ]
  %15 = getelementptr inbounds i8, ptr %1, i64 528
  %16 = load ptr, ptr %15, align 8
  %.not.i9 = icmp ne ptr %16, null
  %17 = icmp sgt i64 %.pre-phi, 0
  %or.cond.i10 = and i1 %.not.i9, %17
  br i1 %or.cond.i10, label %.lr.ph.preheader.i11, label %_ZN6casadi12casadi_clearIdEEvPT_x.exit12

.lr.ph.preheader.i11:                             ; preds = %_ZN6casadi12casadi_clearIdEEvPT_x.exit
  %18 = shl nuw i64 %.pre-phi, 3
  tail call void @llvm.memset.p0.i64(ptr nonnull align 8 %16, i8 0, i64 %18, i1 false)
  %.pr = load i64, ptr %9, align 8
  br label %_ZN6casadi12casadi_clearIdEEvPT_x.exit12

_ZN6casadi12casadi_clearIdEEvPT_x.exit12:         ; preds = %_ZN6casadi12casadi_clearIdEEvPT_x.exit, %.lr.ph.preheader.i11
  %19 = phi i64 [ %14, %_ZN6casadi12casadi_clearIdEEvPT_x.exit ], [ %.pr, %.lr.ph.preheader.i11 ]
  %20 = load ptr, ptr %5, align 8
  %.not.i13 = icmp eq ptr %20, null
  br i1 %.not.i13, label %_ZN6casadi11casadi_copyIdEEvPKT_xPS1_.exit, label %21

21:                                               ; preds = %_ZN6casadi12casadi_clearIdEEvPT_x.exit12
  %.not15.i = icmp eq ptr %2, null
  %22 = icmp sgt i64 %19, 0
  br i1 %.not15.i, label %.preheader.i, label %.preheader16.i

.preheader16.i:                                   ; preds = %21
  br i1 %22, label %.lr.ph.i, label %_ZN6casadi11casadi_copyIdEEvPKT_xPS1_.exit

.preheader.i:                                     ; preds = %21
  br i1 %22, label %.lr.ph23.preheader.i, label %_ZN6casadi11casadi_copyIdEEvPKT_xPS1_.exit

.lr.ph23.preheader.i:                             ; preds = %.preheader.i
  %23 = shl nuw i64 %19, 3
  tail call void @llvm.memset.p0.i64(ptr nonnull align 8 %20, i8 0, i64 %23, i1 false)
  br label %_ZN6casadi11casadi_copyIdEEvPKT_xPS1_.exit

.lr.ph.i:                                         ; preds = %.preheader16.i, %.lr.ph.i
  %.020.i = phi i64 [ %27, %.lr.ph.i ], [ 0, %.preheader16.i ]
  %.01019.i = phi ptr [ %26, %.lr.ph.i ], [ %20, %.preheader16.i ]
  %.01218.i = phi ptr [ %24, %.lr.ph.i ], [ %2, %.preheader16.i ]
  %24 = getelementptr inbounds i8, ptr %.01218.i, i64 8
  %25 = load double, ptr %.01218.i, align 8
  %26 = getelementptr inbounds i8, ptr %.01019.i, i64 8
  store double %25, ptr %.01019.i, align 8
  %27 = add nuw nsw i64 %.020.i, 1
  %exitcond.not.i = icmp eq i64 %27, %19
  br i1 %exitcond.not.i, label %_ZN6casadi11casadi_copyIdEEvPKT_xPS1_.exit, label %.lr.ph.i, !llvm.loop !58

_ZN6casadi11casadi_copyIdEEvPKT_xPS1_.exit:       ; preds = %.lr.ph.i, %_ZN6casadi12casadi_clearIdEEvPT_x.exit12, %.preheader16.i, %.preheader.i, %.lr.ph23.preheader.i
  %28 = load i64, ptr %9, align 8
  %29 = load ptr, ptr %15, align 8
  %.not.i14 = icmp eq ptr %29, null
  br i1 %.not.i14, label %_ZN6casadi11casadi_copyIdEEvPKT_xPS1_.exit24, label %30

30:                                               ; preds = %_ZN6casadi11casadi_copyIdEEvPKT_xPS1_.exit
  %.not15.i15 = icmp eq ptr %3, null
  %31 = icmp sgt i64 %28, 0
  br i1 %.not15.i15, label %.preheader.i22, label %.preheader16.i16

.preheader16.i16:                                 ; preds = %30
  br i1 %31, label %.lr.ph.i17, label %_ZN6casadi11casadi_copyIdEEvPKT_xPS1_.exit24

.preheader.i22:                                   ; preds = %30
  br i1 %31, label %.lr.ph23.preheader.i23, label %_ZN6casadi11casadi_copyIdEEvPKT_xPS1_.exit24

.lr.ph23.preheader.i23:                           ; preds = %.preheader.i22
  %32 = shl nuw i64 %28, 3
  tail call void @llvm.memset.p0.i64(ptr nonnull align 8 %29, i8 0, i64 %32, i1 false)
  br label %_ZN6casadi11casadi_copyIdEEvPKT_xPS1_.exit24

.lr.ph.i17:                                       ; preds = %.preheader16.i16, %.lr.ph.i17
  %.020.i18 = phi i64 [ %36, %.lr.ph.i17 ], [ 0, %.preheader16.i16 ]
  %.01019.i19 = phi ptr [ %35, %.lr.ph.i17 ], [ %29, %.preheader16.i16 ]
  %.01218.i20 = phi ptr [ %33, %.lr.ph.i17 ], [ %3, %.preheader16.i16 ]
  %33 = getelementptr inbounds i8, ptr %.01218.i20, i64 8
  %34 = load double, ptr %.01218.i20, align 8
  %35 = getelementptr inbounds i8, ptr %.01019.i19, i64 8
  store double %34, ptr %.01019.i19, align 8
  %36 = add nuw nsw i64 %.020.i18, 1
  %exitcond.not.i21 = icmp eq i64 %36, %28
  br i1 %exitcond.not.i21, label %_ZN6casadi11casadi_copyIdEEvPKT_xPS1_.exit24, label %.lr.ph.i17, !llvm.loop !58

_ZN6casadi11casadi_copyIdEEvPKT_xPS1_.exit24:     ; preds = %.lr.ph.i17, %_ZN6casadi11casadi_copyIdEEvPKT_xPS1_.exit, %.preheader16.i16, %.preheader.i22, %.lr.ph23.preheader.i23
  ret void
}